target datalayout = "e-m:e-p270:32:32-p271:32:32-p272:64:64-i64:64-i128:128-f80:128-n8:16:32:64-S128"
target triple = "x86_64-pc-linux-gnu"

%struct.H5HF_huge_bt2_ctx_t = type { i8, i8 }
%struct.H5HF_huge_bt2_indir_rec_t = type { i64, i64, i64 }

@H5HF_init_g = external global i8, align 1
@H5_libterm_g = external global i8, align 1

; Function Attrs: nounwind uwtable
define internal i32 @H5HF__huge_bt2_indir_encode(ptr noundef %0, ptr noundef %1, ptr noundef %2) #0 {
  %4 = alloca ptr, align 8
  %5 = alloca ptr, align 8
  %6 = alloca ptr, align 8
  %7 = alloca ptr, align 8
  %8 = alloca ptr, align 8
  %9 = alloca i64, align 8
  %10 = alloca i64, align 8
  %11 = alloca ptr, align 8
  %12 = alloca i64, align 8
  %13 = alloca i64, align 8
  %14 = alloca ptr, align 8
  store ptr %0, ptr %4, align 8, !tbaa !27
  store ptr %1, ptr %5, align 8, !tbaa !3
  store ptr %2, ptr %6, align 8, !tbaa !3
  call void @llvm.lifetime.start.p0(i64 8, ptr %7) #6
  %15 = load ptr, ptr %6, align 8, !tbaa !3
  store ptr %15, ptr %7, align 8, !tbaa !13
  call void @llvm.lifetime.start.p0(i64 8, ptr %8) #6
  %16 = load ptr, ptr %5, align 8, !tbaa !3
  store ptr %16, ptr %8, align 8, !tbaa !29
  %17 = load i8, ptr @H5HF_init_g, align 1, !tbaa !9, !range !11, !noundef !12
  %18 = trunc i8 %17 to i1
  br i1 %18, label %23, label %19

19:                                               ; preds = %3
  %20 = load i8, ptr @H5_libterm_g, align 1, !tbaa !9, !range !11, !noundef !12
  %21 = trunc i8 %20 to i1
  %22 = xor i1 %21, true
  br label %23

23:                                               ; preds = %19, %3
  %24 = phi i1 [ true, %3 ], [ %22, %19 ]
  %25 = xor i1 %24, true
  %26 = xor i1 %25, true
  %27 = zext i1 %26 to i32
  %28 = sext i32 %27 to i64
  %29 = call i64 @llvm.expect.i64(i64 %28, i64 1)
  %30 = icmp ne i64 %29, 0
  br i1 %30, label %31, label %251

31:                                               ; preds = %23
  %32 = load ptr, ptr %7, align 8, !tbaa !13
  %33 = getelementptr inbounds nuw %struct.H5HF_huge_bt2_ctx_t, ptr %32, i32 0, i32 1
  %34 = load i8, ptr %33, align 1, !tbaa !17
  %35 = zext i8 %34 to i64
  %36 = load ptr, ptr %8, align 8, !tbaa !29
  %37 = getelementptr inbounds nuw %struct.H5HF_huge_bt2_indir_rec_t, ptr %36, i32 0, i32 0
  %38 = load i64, ptr %37, align 8, !tbaa !31
  call void @H5F_addr_encode_len(i64 noundef %35, ptr noundef %4, i64 noundef %38)
  br label %39

39:                                               ; preds = %31
  %40 = load ptr, ptr %7, align 8, !tbaa !13
  %41 = getelementptr inbounds nuw %struct.H5HF_huge_bt2_ctx_t, ptr %40, i32 0, i32 0
  %42 = load i8, ptr %41, align 1, !tbaa !19
  %43 = zext i8 %42 to i32
  switch i32 %43, label %141 [
    i32 4, label %44
    i32 8, label %83
    i32 2, label %118
  ]

44:                                               ; preds = %39
  br label %45

45:                                               ; preds = %44
  %46 = load ptr, ptr %8, align 8, !tbaa !29
  %47 = getelementptr inbounds nuw %struct.H5HF_huge_bt2_indir_rec_t, ptr %46, i32 0, i32 1
  %48 = load i64, ptr %47, align 8, !tbaa !32
  %49 = and i64 %48, 255
  %50 = trunc i64 %49 to i8
  %51 = load ptr, ptr %4, align 8, !tbaa !27
  store i8 %50, ptr %51, align 1, !tbaa !33
  %52 = load ptr, ptr %4, align 8, !tbaa !27
  %53 = getelementptr inbounds nuw i8, ptr %52, i32 1
  store ptr %53, ptr %4, align 8, !tbaa !27
  %54 = load ptr, ptr %8, align 8, !tbaa !29
  %55 = getelementptr inbounds nuw %struct.H5HF_huge_bt2_indir_rec_t, ptr %54, i32 0, i32 1
  %56 = load i64, ptr %55, align 8, !tbaa !32
  %57 = lshr i64 %56, 8
  %58 = and i64 %57, 255
  %59 = trunc i64 %58 to i8
  %60 = load ptr, ptr %4, align 8, !tbaa !27
  store i8 %59, ptr %60, align 1, !tbaa !33
  %61 = load ptr, ptr %4, align 8, !tbaa !27
  %62 = getelementptr inbounds nuw i8, ptr %61, i32 1
  store ptr %62, ptr %4, align 8, !tbaa !27
  %63 = load ptr, ptr %8, align 8, !tbaa !29
  %64 = getelementptr inbounds nuw %struct.H5HF_huge_bt2_indir_rec_t, ptr %63, i32 0, i32 1
  %65 = load i64, ptr %64, align 8, !tbaa !32
  %66 = lshr i64 %65, 16
  %67 = and i64 %66, 255
  %68 = trunc i64 %67 to i8
  %69 = load ptr, ptr %4, align 8, !tbaa !27
  store i8 %68, ptr %69, align 1, !tbaa !33
  %70 = load ptr, ptr %4, align 8, !tbaa !27
  %71 = getelementptr inbounds nuw i8, ptr %70, i32 1
  store ptr %71, ptr %4, align 8, !tbaa !27
  %72 = load ptr, ptr %8, align 8, !tbaa !29
  %73 = getelementptr inbounds nuw %struct.H5HF_huge_bt2_indir_rec_t, ptr %72, i32 0, i32 1
  %74 = load i64, ptr %73, align 8, !tbaa !32
  %75 = lshr i64 %74, 24
  %76 = and i64 %75, 255
  %77 = trunc i64 %76 to i8
  %78 = load ptr, ptr %4, align 8, !tbaa !27
  store i8 %77, ptr %78, align 1, !tbaa !33
  %79 = load ptr, ptr %4, align 8, !tbaa !27
  %80 = getelementptr inbounds nuw i8, ptr %79, i32 1
  store ptr %80, ptr %4, align 8, !tbaa !27
  br label %81

81:                                               ; preds = %45
  br label %82

82:                                               ; preds = %81
  br label %142

83:                                               ; preds = %39
  br label %84

84:                                               ; preds = %83
  call void @llvm.lifetime.start.p0(i64 8, ptr %9) #6
  %85 = load ptr, ptr %8, align 8, !tbaa !29
  %86 = getelementptr inbounds nuw %struct.H5HF_huge_bt2_indir_rec_t, ptr %85, i32 0, i32 1
  %87 = load i64, ptr %86, align 8, !tbaa !32
  store i64 %87, ptr %9, align 8, !tbaa !15
  call void @llvm.lifetime.start.p0(i64 8, ptr %10) #6
  call void @llvm.lifetime.start.p0(i64 8, ptr %11) #6
  %88 = load ptr, ptr %4, align 8, !tbaa !27
  store ptr %88, ptr %11, align 8, !tbaa !27
  store i64 0, ptr %10, align 8, !tbaa !15
  br label %89

89:                                               ; preds = %98, %84
  %90 = load i64, ptr %10, align 8, !tbaa !15
  %91 = icmp ult i64 %90, 8
  br i1 %91, label %92, label %103

92:                                               ; preds = %89
  %93 = load i64, ptr %9, align 8, !tbaa !15
  %94 = and i64 %93, 255
  %95 = trunc i64 %94 to i8
  %96 = load ptr, ptr %11, align 8, !tbaa !27
  %97 = getelementptr inbounds nuw i8, ptr %96, i32 1
  store ptr %97, ptr %11, align 8, !tbaa !27
  store i8 %95, ptr %96, align 1, !tbaa !33
  br label %98

98:                                               ; preds = %92
  %99 = load i64, ptr %10, align 8, !tbaa !15
  %100 = add i64 %99, 1
  store i64 %100, ptr %10, align 8, !tbaa !15
  %101 = load i64, ptr %9, align 8, !tbaa !15
  %102 = lshr i64 %101, 8
  store i64 %102, ptr %9, align 8, !tbaa !15
  br label %89, !llvm.loop !34

103:                                              ; preds = %89
  br label %104

104:                                              ; preds = %110, %103
  %105 = load i64, ptr %10, align 8, !tbaa !15
  %106 = icmp ult i64 %105, 8
  br i1 %106, label %107, label %113

107:                                              ; preds = %104
  %108 = load ptr, ptr %11, align 8, !tbaa !27
  %109 = getelementptr inbounds nuw i8, ptr %108, i32 1
  store ptr %109, ptr %11, align 8, !tbaa !27
  store i8 0, ptr %108, align 1, !tbaa !33
  br label %110

110:                                              ; preds = %107
  %111 = load i64, ptr %10, align 8, !tbaa !15
  %112 = add i64 %111, 1
  store i64 %112, ptr %10, align 8, !tbaa !15
  br label %104, !llvm.loop !36

113:                                              ; preds = %104
  %114 = load ptr, ptr %4, align 8, !tbaa !27
  %115 = getelementptr inbounds i8, ptr %114, i64 8
  store ptr %115, ptr %4, align 8, !tbaa !27
  call void @llvm.lifetime.end.p0(i64 8, ptr %11) #6
  call void @llvm.lifetime.end.p0(i64 8, ptr %10) #6
  call void @llvm.lifetime.end.p0(i64 8, ptr %9) #6
  br label %116

116:                                              ; preds = %113
  br label %117

117:                                              ; preds = %116
  br label %142

118:                                              ; preds = %39
  br label %119

119:                                              ; preds = %118
  %120 = load ptr, ptr %8, align 8, !tbaa !29
  %121 = getelementptr inbounds nuw %struct.H5HF_huge_bt2_indir_rec_t, ptr %120, i32 0, i32 1
  %122 = load i64, ptr %121, align 8, !tbaa !32
  %123 = trunc i64 %122 to i32
  %124 = and i32 %123, 255
  %125 = trunc i32 %124 to i8
  %126 = load ptr, ptr %4, align 8, !tbaa !27
  store i8 %125, ptr %126, align 1, !tbaa !33
  %127 = load ptr, ptr %4, align 8, !tbaa !27
  %128 = getelementptr inbounds nuw i8, ptr %127, i32 1
  store ptr %128, ptr %4, align 8, !tbaa !27
  %129 = load ptr, ptr %8, align 8, !tbaa !29
  %130 = getelementptr inbounds nuw %struct.H5HF_huge_bt2_indir_rec_t, ptr %129, i32 0, i32 1
  %131 = load i64, ptr %130, align 8, !tbaa !32
  %132 = trunc i64 %131 to i32
  %133 = lshr i32 %132, 8
  %134 = and i32 %133, 255
  %135 = trunc i32 %134 to i8
  %136 = load ptr, ptr %4, align 8, !tbaa !27
  store i8 %135, ptr %136, align 1, !tbaa !33
  %137 = load ptr, ptr %4, align 8, !tbaa !27
  %138 = getelementptr inbounds nuw i8, ptr %137, i32 1
  store ptr %138, ptr %4, align 8, !tbaa !27
  br label %139

139:                                              ; preds = %119
  br label %140

140:                                              ; preds = %139
  br label %142

141:                                              ; preds = %39
  br label %142

142:                                              ; preds = %141, %140, %117, %82
  br label %143

143:                                              ; preds = %142
  br label %144

144:                                              ; preds = %143
  br label %145

145:                                              ; preds = %144
  %146 = load ptr, ptr %7, align 8, !tbaa !13
  %147 = getelementptr inbounds nuw %struct.H5HF_huge_bt2_ctx_t, ptr %146, i32 0, i32 0
  %148 = load i8, ptr %147, align 1, !tbaa !19
  %149 = zext i8 %148 to i32
  switch i32 %149, label %247 [
    i32 4, label %150
    i32 8, label %189
    i32 2, label %224
  ]

150:                                              ; preds = %145
  br label %151

151:                                              ; preds = %150
  %152 = load ptr, ptr %8, align 8, !tbaa !29
  %153 = getelementptr inbounds nuw %struct.H5HF_huge_bt2_indir_rec_t, ptr %152, i32 0, i32 2
  %154 = load i64, ptr %153, align 8, !tbaa !23
  %155 = and i64 %154, 255
  %156 = trunc i64 %155 to i8
  %157 = load ptr, ptr %4, align 8, !tbaa !27
  store i8 %156, ptr %157, align 1, !tbaa !33
  %158 = load ptr, ptr %4, align 8, !tbaa !27
  %159 = getelementptr inbounds nuw i8, ptr %158, i32 1
  store ptr %159, ptr %4, align 8, !tbaa !27
  %160 = load ptr, ptr %8, align 8, !tbaa !29
  %161 = getelementptr inbounds nuw %struct.H5HF_huge_bt2_indir_rec_t, ptr %160, i32 0, i32 2
  %162 = load i64, ptr %161, align 8, !tbaa !23
  %163 = lshr i64 %162, 8
  %164 = and i64 %163, 255
  %165 = trunc i64 %164 to i8
  %166 = load ptr, ptr %4, align 8, !tbaa !27
  store i8 %165, ptr %166, align 1, !tbaa !33
  %167 = load ptr, ptr %4, align 8, !tbaa !27
  %168 = getelementptr inbounds nuw i8, ptr %167, i32 1
  store ptr %168, ptr %4, align 8, !tbaa !27
  %169 = load ptr, ptr %8, align 8, !tbaa !29
  %170 = getelementptr inbounds nuw %struct.H5HF_huge_bt2_indir_rec_t, ptr %169, i32 0, i32 2
  %171 = load i64, ptr %170, align 8, !tbaa !23
  %172 = lshr i64 %171, 16
  %173 = and i64 %172, 255
  %174 = trunc i64 %173 to i8
  %175 = load ptr, ptr %4, align 8, !tbaa !27
  store i8 %174, ptr %175, align 1, !tbaa !33
  %176 = load ptr, ptr %4, align 8, !tbaa !27
  %177 = getelementptr inbounds nuw i8, ptr %176, i32 1
  store ptr %177, ptr %4, align 8, !tbaa !27
  %178 = load ptr, ptr %8, align 8, !tbaa !29
  %179 = getelementptr inbounds nuw %struct.H5HF_huge_bt2_indir_rec_t, ptr %178, i32 0, i32 2
  %180 = load i64, ptr %179, align 8, !tbaa !23
  %181 = lshr i64 %180, 24
  %182 = and i64 %181, 255
  %183 = trunc i64 %182 to i8
  %184 = load ptr, ptr %4, align 8, !tbaa !27
  store i8 %183, ptr %184, align 1, !tbaa !33
  %185 = load ptr, ptr %4, align 8, !tbaa !27
  %186 = getelementptr inbounds nuw i8, ptr %185, i32 1
  store ptr %186, ptr %4, align 8, !tbaa !27
  br label %187

187:                                              ; preds = %151
  br label %188

188:                                              ; preds = %187
  br label %248

189:                                              ; preds = %145
  br label %190

190:                                              ; preds = %189
  call void @llvm.lifetime.start.p0(i64 8, ptr %12) #6
  %191 = load ptr, ptr %8, align 8, !tbaa !29
  %192 = getelementptr inbounds nuw %struct.H5HF_huge_bt2_indir_rec_t, ptr %191, i32 0, i32 2
  %193 = load i64, ptr %192, align 8, !tbaa !23
  store i64 %193, ptr %12, align 8, !tbaa !15
  call void @llvm.lifetime.start.p0(i64 8, ptr %13) #6
  call void @llvm.lifetime.start.p0(i64 8, ptr %14) #6
  %194 = load ptr, ptr %4, align 8, !tbaa !27
  store ptr %194, ptr %14, align 8, !tbaa !27
  store i64 0, ptr %13, align 8, !tbaa !15
  br label %195

195:                                              ; preds = %204, %190
  %196 = load i64, ptr %13, align 8, !tbaa !15
  %197 = icmp ult i64 %196, 8
  br i1 %197, label %198, label %209

198:                                              ; preds = %195
  %199 = load i64, ptr %12, align 8, !tbaa !15
  %200 = and i64 %199, 255
  %201 = trunc i64 %200 to i8
  %202 = load ptr, ptr %14, align 8, !tbaa !27
  %203 = getelementptr inbounds nuw i8, ptr %202, i32 1
  store ptr %203, ptr %14, align 8, !tbaa !27
  store i8 %201, ptr %202, align 1, !tbaa !33
  br label %204

204:                                              ; preds = %198
  %205 = load i64, ptr %13, align 8, !tbaa !15
  %206 = add i64 %205, 1
  store i64 %206, ptr %13, align 8, !tbaa !15
  %207 = load i64, ptr %12, align 8, !tbaa !15
  %208 = lshr i64 %207, 8
  store i64 %208, ptr %12, align 8, !tbaa !15
  br label %195, !llvm.loop !37

209:                                              ; preds = %195
  br label %210

210:                                              ; preds = %216, %209
  %211 = load i64, ptr %13, align 8, !tbaa !15
  %212 = icmp ult i64 %211, 8
  br i1 %212, label %213, label %219

213:                                              ; preds = %210
  %214 = load ptr, ptr %14, align 8, !tbaa !27
  %215 = getelementptr inbounds nuw i8, ptr %214, i32 1
  store ptr %215, ptr %14, align 8, !tbaa !27
  store i8 0, ptr %214, align 1, !tbaa !33
  br label %216

216:                                              ; preds = %213
  %217 = load i64, ptr %13, align 8, !tbaa !15
  %218 = add i64 %217, 1
  store i64 %218, ptr %13, align 8, !tbaa !15
  br label %210, !llvm.loop !38

219:                                              ; preds = %210
  %220 = load ptr, ptr %4, align 8, !tbaa !27
  %221 = getelementptr inbounds i8, ptr %220, i64 8
  store ptr %221, ptr %4, align 8, !tbaa !27
  call void @llvm.lifetime.end.p0(i64 8, ptr %14) #6
  call void @llvm.lifetime.end.p0(i64 8, ptr %13) #6
  call void @llvm.lifetime.end.p0(i64 8, ptr %12) #6
  br label %222

222:                                              ; preds = %219
  br label %223

223:                                              ; preds = %222
  br label %248

224:                                              ; preds = %145
  br label %225

225:                                              ; preds = %224
  %226 = load ptr, ptr %8, align 8, !tbaa !29
  %227 = getelementptr inbounds nuw %struct.H5HF_huge_bt2_indir_rec_t, ptr %226, i32 0, i32 2
  %228 = load i64, ptr %227, align 8, !tbaa !23
  %229 = trunc i64 %228 to i32
  %230 = and i32 %229, 255
  %231 = trunc i32 %230 to i8
  %232 = load ptr, ptr %4, align 8, !tbaa !27
  store i8 %231, ptr %232, align 1, !tbaa !33
  %233 = load ptr, ptr %4, align 8, !tbaa !27
  %234 = getelementptr inbounds nuw i8, ptr %233, i32 1
  store ptr %234, ptr %4, align 8, !tbaa !27
  %235 = load ptr, ptr %8, align 8, !tbaa !29
  %236 = getelementptr inbounds nuw %struct.H5HF_huge_bt2_indir_rec_t, ptr %235, i32 0, i32 2
  %237 = load i64, ptr %236, align 8, !tbaa !23
  %238 = trunc i64 %237 to i32
  %239 = lshr i32 %238, 8
  %240 = and i32 %239, 255
  %241 = trunc i32 %240 to i8
  %242 = load ptr, ptr %4, align 8, !tbaa !27
  store i8 %241, ptr %242, align 1, !tbaa !33
  %243 = load ptr, ptr %4, align 8, !tbaa !27
  %244 = getelementptr inbounds nuw i8, ptr %243, i32 1
  store ptr %244, ptr %4, align 8, !tbaa !27
  br label %245

245:                                              ; preds = %225
  br label %246

246:                                              ; preds = %245
  br label %248

247:                                              ; preds = %145
  br label %248

248:                                              ; preds = %247, %246, %223, %188
  br label %249

249:                                              ; preds = %248
  br label %250

250:                                              ; preds = %249
  br label %251

251:                                              ; preds = %250, %23
  call void @llvm.lifetime.end.p0(i64 8, ptr %8) #6
  call void @llvm.lifetime.end.p0(i64 8, ptr %7) #6
  ret i32 0
}