; Function Attrs: nounwind uwtable
define internal noundef i32 @H5HF__huge_bt2_indir_encode(ptr noundef %0, ptr noundef readonly captures(none) %1, ptr noundef readonly captures(none) %2) #0 {
  %4 = alloca ptr, align 8
  store ptr %0, ptr %4, align 8, !tbaa !20
  %5 = load i8, ptr @H5HF_init_g, align 1, !tbaa !3, !range !7, !noundef !8
  %6 = trunc nuw i8 %5 to i1
  %7 = load i8, ptr @H5_libterm_g, align 1, !range !7
  %8 = trunc nuw i8 %7 to i1
  %9 = xor i1 %8, true
  %10 = select i1 %6, i1 true, i1 %9
  br i1 %10, label %11, label %.loopexit, !prof !9

11:                                               ; preds = %3
  %12 = getelementptr inbounds nuw i8, ptr %2, i64 1
  %13 = load i8, ptr %12, align 1, !tbaa !12
  %14 = zext i8 %13 to i64
  %15 = load i64, ptr %1, align 8, !tbaa !23
  call void @H5F_addr_encode_len(i64 noundef %14, ptr noundef nonnull %4, i64 noundef %15) #6
  %16 = load i8, ptr %2, align 1, !tbaa !14
  switch i8 %16, label %58 [
    i8 4, label %17
    i8 8, label %37
    i8 2, label %46
  ]

17:                                               ; preds = %11
  %18 = getelementptr inbounds nuw i8, ptr %1, i64 8
  %19 = load i64, ptr %18, align 8, !tbaa !24
  %20 = trunc i64 %19 to i8
  %21 = load ptr, ptr %4, align 8, !tbaa !20
  store i8 %20, ptr %21, align 1, !tbaa !25
  %22 = load ptr, ptr %4, align 8, !tbaa !20
  %23 = getelementptr inbounds nuw i8, ptr %22, i64 1
  store ptr %23, ptr %4, align 8, !tbaa !20
  %24 = load i64, ptr %18, align 8, !tbaa !24
  %25 = lshr i64 %24, 8
  %26 = trunc i64 %25 to i8
  store i8 %26, ptr %23, align 1, !tbaa !25
  %27 = load ptr, ptr %4, align 8, !tbaa !20
  %28 = getelementptr inbounds nuw i8, ptr %27, i64 1
  store ptr %28, ptr %4, align 8, !tbaa !20
  %29 = load i64, ptr %18, align 8, !tbaa !24
  %30 = lshr i64 %29, 16
  %31 = trunc i64 %30 to i8
  store i8 %31, ptr %28, align 1, !tbaa !25
  %32 = load ptr, ptr %4, align 8, !tbaa !20
  %33 = getelementptr inbounds nuw i8, ptr %32, i64 1
  store ptr %33, ptr %4, align 8, !tbaa !20
  %34 = load i64, ptr %18, align 8, !tbaa !24
  %35 = lshr i64 %34, 24
  %36 = trunc i64 %35 to i8
  store i8 %36, ptr %33, align 1, !tbaa !25
  br label %thread-pre-split

37:                                               ; preds = %11
  %38 = getelementptr inbounds nuw i8, ptr %1, i64 8
  %39 = load i64, ptr %38, align 8, !tbaa !24
  %40 = load ptr, ptr %4, align 8, !tbaa !20
  br label %41

41:                                               ; preds = %37, %41
  %.03845 = phi ptr [ %40, %37 ], [ %43, %41 ]
  %.04044 = phi i64 [ 0, %37 ], [ %44, %41 ]
  %.04243 = phi i64 [ %39, %37 ], [ %45, %41 ]
  %42 = trunc i64 %.04243 to i8
  %43 = getelementptr inbounds nuw i8, ptr %.03845, i64 1
  store i8 %42, ptr %.03845, align 1, !tbaa !25
  %44 = add nuw nsw i64 %.04044, 1
  %45 = lshr i64 %.04243, 8
  %exitcond.not = icmp eq i64 %44, 8
  br i1 %exitcond.not, label %thread-pre-split, label %41, !llvm.loop !26

46:                                               ; preds = %11
  %47 = getelementptr inbounds nuw i8, ptr %1, i64 8
  %48 = load i64, ptr %47, align 8, !tbaa !24
  %49 = trunc i64 %48 to i8
  %50 = load ptr, ptr %4, align 8, !tbaa !20
  store i8 %49, ptr %50, align 1, !tbaa !25
  %51 = load ptr, ptr %4, align 8, !tbaa !20
  %52 = getelementptr inbounds nuw i8, ptr %51, i64 1
  store ptr %52, ptr %4, align 8, !tbaa !20
  %53 = load i64, ptr %47, align 8, !tbaa !24
  %54 = lshr i64 %53, 8
  %55 = trunc i64 %54 to i8
  store i8 %55, ptr %52, align 1, !tbaa !25
  br label %thread-pre-split

thread-pre-split:                                 ; preds = %41, %46, %17
  %.sink51 = phi i64 [ 1, %46 ], [ 1, %17 ], [ 8, %41 ]
  %56 = load ptr, ptr %4, align 8, !tbaa !20
  %57 = getelementptr inbounds nuw i8, ptr %56, i64 %.sink51
  store ptr %57, ptr %4, align 8, !tbaa !20
  %.pr = load i8, ptr %2, align 1, !tbaa !14
  br label %58

58:                                               ; preds = %thread-pre-split, %11
  %59 = phi i8 [ %.pr, %thread-pre-split ], [ %16, %11 ]
  switch i8 %59, label %.loopexit [
    i8 4, label %60
    i8 8, label %80
    i8 2, label %89
  ]

60:                                               ; preds = %58
  %61 = getelementptr inbounds nuw i8, ptr %1, i64 16
  %62 = load i64, ptr %61, align 8, !tbaa !16
  %63 = trunc i64 %62 to i8
  %64 = load ptr, ptr %4, align 8, !tbaa !20
  store i8 %63, ptr %64, align 1, !tbaa !25
  %65 = load ptr, ptr %4, align 8, !tbaa !20
  %66 = getelementptr inbounds nuw i8, ptr %65, i64 1
  store ptr %66, ptr %4, align 8, !tbaa !20
  %67 = load i64, ptr %61, align 8, !tbaa !16
  %68 = lshr i64 %67, 8
  %69 = trunc i64 %68 to i8
  store i8 %69, ptr %66, align 1, !tbaa !25
  %70 = load ptr, ptr %4, align 8, !tbaa !20
  %71 = getelementptr inbounds nuw i8, ptr %70, i64 1
  store ptr %71, ptr %4, align 8, !tbaa !20
  %72 = load i64, ptr %61, align 8, !tbaa !16
  %73 = lshr i64 %72, 16
  %74 = trunc i64 %73 to i8
  store i8 %74, ptr %71, align 1, !tbaa !25
  %75 = load ptr, ptr %4, align 8, !tbaa !20
  %76 = getelementptr inbounds nuw i8, ptr %75, i64 1
  %77 = load i64, ptr %61, align 8, !tbaa !16
  %78 = lshr i64 %77, 24
  %79 = trunc i64 %78 to i8
  store i8 %79, ptr %76, align 1, !tbaa !25
  br label %.loopexit

80:                                               ; preds = %58
  %81 = getelementptr inbounds nuw i8, ptr %1, i64 16
  %82 = load i64, ptr %81, align 8, !tbaa !16
  %83 = load ptr, ptr %4, align 8, !tbaa !20
  br label %84

84:                                               ; preds = %80, %84
  %.048 = phi ptr [ %83, %80 ], [ %86, %84 ]
  %.03547 = phi i64 [ 0, %80 ], [ %87, %84 ]
  %.03746 = phi i64 [ %82, %80 ], [ %88, %84 ]
  %85 = trunc i64 %.03746 to i8
  %86 = getelementptr inbounds nuw i8, ptr %.048, i64 1
  store i8 %85, ptr %.048, align 1, !tbaa !25
  %87 = add nuw nsw i64 %.03547, 1
  %88 = lshr i64 %.03746, 8
  %exitcond49.not = icmp eq i64 %87, 8
  br i1 %exitcond49.not, label %.loopexit, label %84, !llvm.loop !28

89:                                               ; preds = %58
  %90 = getelementptr inbounds nuw i8, ptr %1, i64 16
  %91 = load i64, ptr %90, align 8, !tbaa !16
  %92 = trunc i64 %91 to i8
  %93 = load ptr, ptr %4, align 8, !tbaa !20
  store i8 %92, ptr %93, align 1, !tbaa !25
  %94 = load ptr, ptr %4, align 8, !tbaa !20
  %95 = getelementptr inbounds nuw i8, ptr %94, i64 1
  %96 = load i64, ptr %90, align 8, !tbaa !16
  %97 = lshr i64 %96, 8
  %98 = trunc i64 %97 to i8
  store i8 %98, ptr %95, align 1, !tbaa !25
  br label %.loopexit

.loopexit:                                        ; preds = %84, %60, %89, %58, %3
  ret i32 0
}